target datalayout = "e-m:e-p270:32:32-p271:32:32-p272:64:64-i64:64-i128:128-f80:128-n8:16:32:64-S128"
target triple = "x86_64-unknown-linux-gnu"

%"class.node::TimerWrap" = type { %"class.node::MemoryRetainer", ptr, %"class.std::function", %struct.uv_timer_s }
%"class.node::MemoryRetainer" = type { ptr }
%"class.std::function" = type { %"class.std::_Function_base", ptr }
%"class.std::_Function_base" = type { %"union.std::_Any_data", ptr }
%"union.std::_Any_data" = type { %"union.std::_Nocopy_types" }
%"union.std::_Nocopy_types" = type { { i64, i64 } }
%struct.uv_timer_s = type { ptr, ptr, i32, ptr, %struct.uv__queue, %union.anon, ptr, i32, ptr, [3 x ptr], i64, i64, i64 }
%struct.uv__queue = type { ptr, ptr }
%union.anon = type { [4 x ptr] }

; Function Attrs: mustprogress nounwind uwtable
define dso_local void @_ZN4node9TimerWrap3RefEv(ptr noundef nonnull align 8 dereferenceable(200) %this) #4 align 2 {
entry:
  %this.addr = alloca ptr, align 8
  store ptr %this, ptr %this.addr, align 8
  %this1 = load ptr, ptr %this.addr, align 8
  %timer_ = getelementptr inbounds %"class.node::TimerWrap", ptr %this1, i32 0, i32 3
  %data = getelementptr inbounds %struct.uv_timer_s, ptr %timer_, i32 0, i32 0
  %0 = load ptr, ptr %data, align 8
  %cmp = icmp eq ptr %0, null
  br i1 %cmp, label %if.then, label %if.end

if.then:                                          ; preds = %entry
  br label %return

if.end:                                           ; preds = %entry
  %timer_2 = getelementptr inbounds %"class.node::TimerWrap", ptr %this1, i32 0, i32 3
  call void @uv_ref(ptr noundef %timer_2)
  br label %return

return:                                           ; preds = %if.end, %if.then
  ret void
}