; Function Attrs: mustprogress nounwind uwtable
define dso_local void @_ZN4node9TimerWrap3RefEv(ptr noundef nonnull align 8 dereferenceable(200) %this) local_unnamed_addr #3 align 2 {
entry:
  %timer_ = getelementptr inbounds i8, ptr %this, i64 48
  %0 = load ptr, ptr %timer_, align 8
  %cmp = icmp eq ptr %0, null
  br i1 %cmp, label %return, label %if.end

if.end:                                           ; preds = %entry
  tail call void @uv_ref(ptr noundef nonnull %timer_) #13
  br label %return

return:                                           ; preds = %entry, %if.end
  ret void
}